; Function Attrs: mustprogress nofree norecurse nosync nounwind memory(readwrite, inaccessiblemem: none) uwtable
define noundef i32 @_ZN5ZXing4OneD12WriterHelper13AppendPatternERSt6vectorIbSaIbEEiPKimb(ptr noundef nonnull readonly align 8 captures(none) dereferenceable(40) %0, i32 noundef %1, ptr noundef readonly captures(none) %2, i64 noundef %3, i1 noundef zeroext %4) local_unnamed_addr #2 align 2 personality ptr @__gxx_personality_v0 {
  %.not = icmp eq i64 %3, 0
  br i1 %.not, label %._crit_edge29, label %.lr.ph28

.lr.ph28:                                         ; preds = %5
  %6 = load ptr, ptr %0, align 8
  br label %7

._crit_edge29:                                    ; preds = %._crit_edge, %5
  %.017.lcssa = phi i32 [ 0, %5 ], [ %24, %._crit_edge ]
  ret i32 %.017.lcssa

7:                                                ; preds = %.lr.ph28, %._crit_edge
  %.01526 = phi i32 [ %1, %.lr.ph28 ], [ %.1.lcssa, %._crit_edge ]
  %.01625 = phi i64 [ 0, %.lr.ph28 ], [ %26, %._crit_edge ]
  %.01724 = phi i32 [ 0, %.lr.ph28 ], [ %24, %._crit_edge ]
  %.018.in23 = phi i1 [ %4, %.lr.ph28 ], [ %25, %._crit_edge ]
  %8 = getelementptr inbounds nuw i32, ptr %2, i64 %.01625
  %9 = load i32, ptr %8, align 4, !tbaa !26
  %10 = icmp sgt i32 %9, 0
  br i1 %10, label %.lr.ph, label %._crit_edge

.lr.ph:                                           ; preds = %7
  %11 = sext i32 %.01526 to i64
  br i1 %.018.in23, label %_ZNSt14_Bit_referenceaSEb.exit.us, label %_ZNSt14_Bit_referenceaSEb.exit

_ZNSt14_Bit_referenceaSEb.exit.us:                ; preds = %.lr.ph, %_ZNSt14_Bit_referenceaSEb.exit.us
  %indvars.iv35 = phi i64 [ %indvars.iv.next36, %_ZNSt14_Bit_referenceaSEb.exit.us ], [ %11, %.lr.ph ]
  %.022.us = phi i32 [ %21, %_ZNSt14_Bit_referenceaSEb.exit.us ], [ 0, %.lr.ph ]
  %indvars.iv.next36 = add nsw i64 %indvars.iv35, 1
  %12 = trunc nsw i64 %indvars.iv35 to i32
  %13 = sdiv i32 %12, 64
  %.sext.us = sext i32 %13 to i64
  %14 = getelementptr inbounds i64, ptr %6, i64 %.sext.us
  %15 = and i64 %indvars.iv35, -9223372036854775745
  %16 = icmp ugt i64 %15, -9223372036854775808
  %storemerge.idx.i.i.i.i.i.us = select i1 %16, i64 -8, i64 0
  %storemerge.i.i.i.i.i.us = getelementptr inbounds i8, ptr %14, i64 %storemerge.idx.i.i.i.i.i.us
  %17 = and i64 %indvars.iv35, 63
  %18 = shl nuw i64 1, %17
  %19 = load i64, ptr %storemerge.i.i.i.i.i.us, align 8, !tbaa !11
  %20 = or i64 %19, %18
  store i64 %20, ptr %storemerge.i.i.i.i.i.us, align 8, !tbaa !11
  %21 = add nuw nsw i32 %.022.us, 1
  %exitcond38.not = icmp eq i32 %21, %9
  br i1 %exitcond38.not, label %._crit_edge.loopexit, label %_ZNSt14_Bit_referenceaSEb.exit.us, !llvm.loop !27

._crit_edge.loopexit:                             ; preds = %_ZNSt14_Bit_referenceaSEb.exit.us
  %22 = trunc nsw i64 %indvars.iv.next36 to i32
  br label %._crit_edge

._crit_edge.loopexit31:                           ; preds = %_ZNSt14_Bit_referenceaSEb.exit
  %23 = trunc nsw i64 %indvars.iv.next to i32
  br label %._crit_edge

._crit_edge:                                      ; preds = %._crit_edge.loopexit31, %._crit_edge.loopexit, %7
  %.1.lcssa = phi i32 [ %.01526, %7 ], [ %22, %._crit_edge.loopexit ], [ %23, %._crit_edge.loopexit31 ]
  %24 = add nsw i32 %9, %.01724
  %25 = xor i1 %.018.in23, true
  %26 = add nuw i64 %.01625, 1
  %exitcond39.not = icmp eq i64 %26, %3
  br i1 %exitcond39.not, label %._crit_edge29, label %7, !llvm.loop !28

_ZNSt14_Bit_referenceaSEb.exit:                   ; preds = %.lr.ph, %_ZNSt14_Bit_referenceaSEb.exit
  %indvars.iv = phi i64 [ %indvars.iv.next, %_ZNSt14_Bit_referenceaSEb.exit ], [ %11, %.lr.ph ]
  %.022 = phi i32 [ %37, %_ZNSt14_Bit_referenceaSEb.exit ], [ 0, %.lr.ph ]
  %indvars.iv.next = add nsw i64 %indvars.iv, 1
  %27 = trunc nsw i64 %indvars.iv to i32
  %28 = sdiv i32 %27, 64
  %.sext = sext i32 %28 to i64
  %29 = getelementptr inbounds i64, ptr %6, i64 %.sext
  %30 = and i64 %indvars.iv, -9223372036854775745
  %31 = icmp ugt i64 %30, -9223372036854775808
  %storemerge.idx.i.i.i.i.i = select i1 %31, i64 -8, i64 0
  %storemerge.i.i.i.i.i = getelementptr inbounds i8, ptr %29, i64 %storemerge.idx.i.i.i.i.i
  %32 = and i64 %indvars.iv, 63
  %33 = shl nuw i64 1, %32
  %34 = xor i64 %33, -1
  %35 = load i64, ptr %storemerge.i.i.i.i.i, align 8, !tbaa !11
  %36 = and i64 %35, %34
  store i64 %36, ptr %storemerge.i.i.i.i.i, align 8, !tbaa !11
  %37 = add nuw nsw i32 %.022, 1
  %exitcond.not = icmp eq i32 %37, %9
  br i1 %exitcond.not, label %._crit_edge.loopexit31, label %_ZNSt14_Bit_referenceaSEb.exit, !llvm.loop !27
}